target datalayout = "e-m:e-p270:32:32-p271:32:32-p272:64:64-i64:64-i128:128-f80:128-n8:16:32:64-S128"
target triple = "x86_64-pc-linux-gnu"

%"class.rocksdb::AllocTracker" = type <{ ptr, %"struct.std::atomic", i8, i8, [6 x i8] }>
%"struct.std::atomic" = type { %"struct.std::__atomic_base" }
%"struct.std::__atomic_base" = type { i64 }
%"class.rocksdb::WriteBufferManager" = type <{ %"struct.std::atomic", %"struct.std::atomic", %"struct.std::atomic", %"struct.std::atomic", %"class.std::shared_ptr", %"class.std::mutex", %"class.std::__cxx11::list", %"class.std::mutex", %"struct.std::atomic.0", %"struct.std::atomic.0", [6 x i8] }>
%"class.std::shared_ptr" = type { %"class.std::__shared_ptr" }
%"class.std::__shared_ptr" = type { ptr, %"class.std::__shared_count" }
%"class.std::__shared_count" = type { ptr }
%"class.std::__cxx11::list" = type { %"class.std::__cxx11::_List_base" }
%"class.std::__cxx11::_List_base" = type { %"struct.std::__cxx11::_List_base<rocksdb::StallInterface *, std::allocator<rocksdb::StallInterface *>>::_List_impl" }
%"struct.std::__cxx11::_List_base<rocksdb::StallInterface *, std::allocator<rocksdb::StallInterface *>>::_List_impl" = type { %"struct.std::__detail::_List_node_header" }
%"struct.std::__detail::_List_node_header" = type { %"struct.std::__detail::_List_node_base", i64 }
%"struct.std::__detail::_List_node_base" = type { ptr, ptr }
%"class.std::mutex" = type { %"class.std::__mutex_base" }
%"class.std::__mutex_base" = type { %union.pthread_mutex_t }
%union.pthread_mutex_t = type { %struct.__pthread_mutex_s }
%struct.__pthread_mutex_s = type { i32, i32, i32, i32, i32, i16, i16, %struct.__pthread_internal_list }
%struct.__pthread_internal_list = type { ptr, ptr }
%"struct.std::atomic.0" = type { %"struct.std::__atomic_base.1" }
%"struct.std::__atomic_base.1" = type { i8 }

; Function Attrs: mustprogress nounwind uwtable
define linkonce_odr noundef zeroext i1 @_ZNKSt12__shared_ptrIN7rocksdb23CacheReservationManagerELN9__gnu_cxx12_Lock_policyE2EEcvbEv(ptr noundef nonnull align 8 dereferenceable(16) %0) #0 comdat align 2 {
  %2 = alloca ptr, align 8
  store ptr %0, ptr %2, align 8, !tbaa !33
  %3 = load ptr, ptr %2, align 8
  %4 = getelementptr inbounds nuw %"class.std::__shared_ptr", ptr %3, i32 0, i32 0
  %5 = load ptr, ptr %4, align 8, !tbaa !35
  %6 = icmp ne ptr %5, null
  ret i1 %6
}

; Function Attrs: noinline noreturn nounwind uwtable
define linkonce_odr hidden void @__clang_call_terminate(ptr noundef %0) #2 comdat {
  %2 = call ptr @__cxa_begin_catch(ptr %0) #7
  call void @_ZSt9terminatev() #8
  unreachable
}

; Function Attrs: mustprogress nounwind uwtable
define linkonce_odr noundef i32 @_ZStanSt12memory_orderSt23__memory_order_modifier(i32 noundef %0, i32 noundef %1) #0 comdat {
  %3 = alloca i32, align 4
  %4 = alloca i32, align 4
  store i32 %0, ptr %3, align 4, !tbaa !26
  store i32 %1, ptr %4, align 4, !tbaa !40
  %5 = load i32, ptr %3, align 4, !tbaa !26
  %6 = load i32, ptr %4, align 4, !tbaa !40
  %7 = and i32 %5, %6
  ret i32 %7
}

; Function Attrs: inlinehint mustprogress nounwind uwtable
define linkonce_odr noundef zeroext i1 @_ZStneIN7rocksdb23CacheReservationManagerEEbRKSt10shared_ptrIT_EDn(ptr noundef nonnull align 8 dereferenceable(16) %0, ptr %1) #5 comdat {
  %3 = alloca ptr, align 8
  %4 = alloca ptr, align 8
  store ptr %0, ptr %3, align 8, !tbaa !29
  store ptr %1, ptr %4, align 8, !tbaa !31
  %5 = load ptr, ptr %3, align 8, !tbaa !29
  %6 = call noundef zeroext i1 @_ZNKSt12__shared_ptrIN7rocksdb23CacheReservationManagerELN9__gnu_cxx12_Lock_policyE2EEcvbEv(ptr noundef nonnull align 8 dereferenceable(16) %5) #7
  ret i1 %6
}

; Function Attrs: mustprogress nounwind uwtable
define linkonce_odr noundef i64 @_ZNK7rocksdb18WriteBufferManager11buffer_sizeEv(ptr noundef nonnull align 8 dereferenceable(160) %0) #0 comdat align 2 {
  %2 = alloca ptr, align 8
  store ptr %0, ptr %2, align 8, !tbaa !9
  %3 = load ptr, ptr %2, align 8
  %4 = getelementptr inbounds nuw %"class.rocksdb::WriteBufferManager", ptr %3, i32 0, i32 0
  %5 = call noundef i64 @_ZNKSt13__atomic_baseImE4loadESt12memory_order(ptr noundef nonnull align 8 dereferenceable(8) %4, i32 noundef 0) #7
  ret i64 %5
}

; Function Attrs: alwaysinline mustprogress nounwind uwtable
define linkonce_odr noundef i64 @_ZNKSt13__atomic_baseImE4loadESt12memory_order(ptr noundef nonnull align 8 dereferenceable(8) %0, i32 noundef %1) #3 comdat align 2 personality ptr @__gxx_personality_v0 {
  %3 = alloca ptr, align 8
  %4 = alloca i32, align 4
  %5 = alloca i32, align 4
  %6 = alloca i64, align 8
  store ptr %0, ptr %3, align 8, !tbaa !24
  store i32 %1, ptr %4, align 4, !tbaa !26
  %7 = load ptr, ptr %3, align 8
  call void @llvm.lifetime.start.p0(i64 4, ptr %5) #7
  %8 = load i32, ptr %4, align 4, !tbaa !26
  %9 = invoke noundef i32 @_ZStanSt12memory_orderSt23__memory_order_modifier(i32 noundef %8, i32 noundef 65535)
          to label %10 unwind label %27

10:                                               ; preds = %2
  store i32 %9, ptr %5, align 4, !tbaa !26
  br label %11

11:                                               ; preds = %10
  br label %12

12:                                               ; preds = %11
  br label %13

13:                                               ; preds = %12
  br label %14

14:                                               ; preds = %13
  br label %15

15:                                               ; preds = %14
  br label %16

16:                                               ; preds = %15
  %17 = getelementptr inbounds nuw %"struct.std::__atomic_base", ptr %7, i32 0, i32 0
  %18 = load i32, ptr %4, align 4, !tbaa !26
  switch i32 %18, label %19 [
    i32 1, label %21
    i32 2, label %21
    i32 5, label %23
  ]

19:                                               ; preds = %16
  %20 = load atomic i64, ptr %17 monotonic, align 8
  store i64 %20, ptr %6, align 8
  br label %25

21:                                               ; preds = %16, %16
  %22 = load atomic i64, ptr %17 acquire, align 8
  store i64 %22, ptr %6, align 8
  br label %25

23:                                               ; preds = %16
  %24 = load atomic i64, ptr %17 seq_cst, align 8
  store i64 %24, ptr %6, align 8
  br label %25

25:                                               ; preds = %23, %21, %19
  %26 = load i64, ptr %6, align 8, !tbaa !21
  call void @llvm.lifetime.end.p0(i64 4, ptr %5) #7
  ret i64 %26

27:                                               ; preds = %2
  %28 = landingpad { ptr, i32 }
          catch ptr null
  %29 = extractvalue { ptr, i32 } %28, 0
  call void @__clang_call_terminate(ptr %29) #8
  unreachable
}

; Function Attrs: mustprogress nounwind uwtable
define linkonce_odr noundef zeroext i1 @_ZNK7rocksdb18WriteBufferManager13cost_to_cacheEv(ptr noundef nonnull align 8 dereferenceable(160) %0) #0 comdat align 2 {
  %2 = alloca ptr, align 8
  store ptr %0, ptr %2, align 8, !tbaa !9
  %3 = load ptr, ptr %2, align 8
  %4 = getelementptr inbounds nuw %"class.rocksdb::WriteBufferManager", ptr %3, i32 0, i32 4
  %5 = call noundef zeroext i1 @_ZStneIN7rocksdb23CacheReservationManagerEEbRKSt10shared_ptrIT_EDn(ptr noundef nonnull align 8 dereferenceable(16) %4, ptr null) #7
  ret i1 %5
}

; Function Attrs: mustprogress uwtable
define linkonce_odr noundef zeroext i1 @_ZNK7rocksdb18WriteBufferManager7enabledEv(ptr noundef nonnull align 8 dereferenceable(160) %0) #1 comdat align 2 {
  %2 = alloca ptr, align 8
  store ptr %0, ptr %2, align 8, !tbaa !9
  %3 = load ptr, ptr %2, align 8
  %4 = call noundef i64 @_ZNK7rocksdb18WriteBufferManager11buffer_sizeEv(ptr noundef nonnull align 8 dereferenceable(160) %3)
  %5 = icmp ugt i64 %4, 0
  ret i1 %5
}

; Function Attrs: mustprogress uwtable
define void @_ZN7rocksdb12AllocTracker14DoneAllocatingEv(ptr noundef nonnull align 8 dereferenceable(18) %0) #1 align 2 {
  %2 = alloca ptr, align 8
  store ptr %0, ptr %2, align 8, !tbaa !4
  %3 = load ptr, ptr %2, align 8
  %4 = getelementptr inbounds nuw %"class.rocksdb::AllocTracker", ptr %3, i32 0, i32 0
  %5 = load ptr, ptr %4, align 8, !tbaa !11
  %6 = icmp ne ptr %5, null
  br i1 %6, label %7, label %27

7:                                                ; preds = %1
  %8 = getelementptr inbounds nuw %"class.rocksdb::AllocTracker", ptr %3, i32 0, i32 2
  %9 = load i8, ptr %8, align 8, !tbaa !17, !range !22, !noundef !23
  %10 = trunc i8 %9 to i1
  br i1 %10, label %27, label %11

11:                                               ; preds = %7
  %12 = getelementptr inbounds nuw %"class.rocksdb::AllocTracker", ptr %3, i32 0, i32 0
  %13 = load ptr, ptr %12, align 8, !tbaa !11
  %14 = call noundef zeroext i1 @_ZNK7rocksdb18WriteBufferManager7enabledEv(ptr noundef nonnull align 8 dereferenceable(160) %13)
  br i1 %14, label %19, label %15

15:                                               ; preds = %11
  %16 = getelementptr inbounds nuw %"class.rocksdb::AllocTracker", ptr %3, i32 0, i32 0
  %17 = load ptr, ptr %16, align 8, !tbaa !11
  %18 = call noundef zeroext i1 @_ZNK7rocksdb18WriteBufferManager13cost_to_cacheEv(ptr noundef nonnull align 8 dereferenceable(160) %17)
  br i1 %18, label %19, label %24

19:                                               ; preds = %15, %11
  %20 = getelementptr inbounds nuw %"class.rocksdb::AllocTracker", ptr %3, i32 0, i32 0
  %21 = load ptr, ptr %20, align 8, !tbaa !11
  %22 = getelementptr inbounds nuw %"class.rocksdb::AllocTracker", ptr %3, i32 0, i32 1
  %23 = call noundef i64 @_ZNKSt13__atomic_baseImE4loadESt12memory_order(ptr noundef nonnull align 8 dereferenceable(8) %22, i32 noundef 0) #7
  call void @_ZN7rocksdb18WriteBufferManager15ScheduleFreeMemEm(ptr noundef nonnull align 8 dereferenceable(160) %21, i64 noundef %23)
  br label %25

24:                                               ; preds = %15
  br label %25

25:                                               ; preds = %24, %19
  %26 = getelementptr inbounds nuw %"class.rocksdb::AllocTracker", ptr %3, i32 0, i32 2
  store i8 1, ptr %26, align 8, !tbaa !17
  br label %27

27:                                               ; preds = %25, %7, %1
  ret void
}