; Function Attrs: mustprogress uwtable
define void @_ZN7rocksdb12AllocTracker14DoneAllocatingEv(ptr noundef nonnull align 8 captures(none) dereferenceable(18) %0) local_unnamed_addr #2 align 2 personality ptr @__gxx_personality_v0 {
  %2 = load ptr, ptr %0, align 8, !tbaa !4
  %.not = icmp eq ptr %2, null
  br i1 %.not, label %16, label %3

3:                                                ; preds = %1
  %4 = getelementptr inbounds nuw i8, ptr %0, i64 16
  %5 = load i8, ptr %4, align 8, !tbaa !15, !range !17, !noundef !18
  %6 = trunc nuw i8 %5 to i1
  br i1 %6, label %16, label %7

7:                                                ; preds = %3
  %8 = load atomic i64, ptr %2 monotonic, align 8
  %.not1 = icmp eq i64 %8, 0
  br i1 %.not1, label %9, label %12

9:                                                ; preds = %7
  %10 = getelementptr inbounds nuw i8, ptr %2, i64 32
  %11 = load ptr, ptr %10, align 8, !tbaa !19
  %.not2 = icmp eq ptr %11, null
  br i1 %.not2, label %15, label %12

12:                                               ; preds = %9, %7
  %13 = getelementptr inbounds nuw i8, ptr %0, i64 8
  %14 = load atomic i64, ptr %13 monotonic, align 8
  tail call void @_ZN7rocksdb18WriteBufferManager15ScheduleFreeMemEm(ptr noundef nonnull align 8 dereferenceable(160) %2, i64 noundef %14)
  br label %15

15:                                               ; preds = %9, %12
  store i8 1, ptr %4, align 8, !tbaa !15
  br label %16

16:                                               ; preds = %15, %3, %1
  ret void
}